target datalayout = "e-m:e-p270:32:32-p271:32:32-p272:64:64-i64:64-i128:128-f80:128-n8:16:32:64-S128"
target triple = "x86_64-unknown-linux-gnu"

%"class.smt::theory_array_full" = type { %"class.smt::theory_array.base", %class.ptr_vector.24, %class.ast2ast_trailmap, %class.ast2ast_trailmap.36, %class.obj_pair_map, %class.ptr_vector, %class.ptr_vector }
%"class.smt::theory_array.base" = type <{ %"class.smt::theory_array_base.base", [7 x i8], %class.ptr_vector.20, ptr, %"struct.smt::theory_array_stats", [4 x i8], %class.union_find, %class.trail_stack, i32 }>
%"class.smt::theory_array_base.base" = type <{ %"class.smt::theory.base", i8, [2 x i8], i32, [4 x i8], %class.svector.1, %class.ptr_vector, %class.svector.3, %class.svector.3, %class.svector.3, %class.scoped_ptr, %class.ptr_vector.5, %class.obj_map, %class.ptr_hashtable, %class.svector.9, ptr, %class.ptr_vector, %class.ptr_vector.11, %class.svector.1, %class.obj_map.13, %class.ptr_vector, %class.ptr_vector.18, i8 }>
%"class.smt::theory.base" = type <{ ptr, i32, [4 x i8], ptr, ptr, %class.ptr_vector, %class.svector, i32, i8 }>
%class.svector = type { %class.vector.0 }
%class.vector.0 = type { ptr }
%class.svector.3 = type { %class.vector.4 }
%class.vector.4 = type { ptr }
%class.scoped_ptr = type { ptr }
%class.ptr_vector.5 = type { %class.vector.6 }
%class.vector.6 = type { ptr }
%class.obj_map = type { %class.core_hashtable }
%class.core_hashtable = type <{ ptr, i32, i32, i32, [4 x i8] }>
%class.ptr_hashtable = type { %class.core_hashtable.base.8, [4 x i8] }
%class.core_hashtable.base.8 = type <{ ptr, i32, i32, i32 }>
%class.svector.9 = type { %class.vector.10 }
%class.vector.10 = type { ptr }
%class.ptr_vector.11 = type { %class.vector.12 }
%class.vector.12 = type { ptr }
%class.svector.1 = type { %class.vector.2 }
%class.vector.2 = type { ptr }
%class.obj_map.13 = type { %class.core_hashtable.14 }
%class.core_hashtable.14 = type <{ ptr, i32, i32, i32, [4 x i8] }>
%class.ptr_vector.18 = type { %class.vector.19 }
%class.vector.19 = type { ptr }
%class.ptr_vector.20 = type { %class.vector.21 }
%class.vector.21 = type { ptr }
%"struct.smt::theory_array_stats" = type { i32, i32, i32, i32, i32, i32, i32, i32, i32, i32, i32, i32, i32 }
%class.union_find = type { ptr, ptr, %class.svector, %class.svector, %class.svector, %"class.union_find<smt::theory_array>::mk_var_trail" }
%"class.union_find<smt::theory_array>::mk_var_trail" = type { %class.trail, ptr }
%class.trail = type { ptr }
%class.trail_stack = type { %class.ptr_vector.22, %class.svector, %class.region }
%class.ptr_vector.22 = type { %class.vector.23 }
%class.vector.23 = type { ptr }
%class.region = type { ptr, ptr, ptr, ptr, ptr }
%class.ptr_vector.24 = type { %class.vector.25 }
%class.vector.25 = type { ptr }
%class.ast2ast_trailmap = type { %class.ref_vector, %class.ref_vector.26, %class.obj_map.31 }
%class.ref_vector = type { %class.ref_vector_core }
%class.ref_vector_core = type { %class.ref_manager_wrapper, %class.ptr_vector.5 }
%class.ref_manager_wrapper = type { ptr }
%class.ref_vector.26 = type { %class.ref_vector_core.27 }
%class.ref_vector_core.27 = type { %class.ref_manager_wrapper.28, %class.ptr_vector.29 }
%class.ref_manager_wrapper.28 = type { ptr }
%class.ptr_vector.29 = type { %class.vector.30 }
%class.vector.30 = type { ptr }
%class.obj_map.31 = type { %class.core_hashtable.32 }
%class.core_hashtable.32 = type <{ ptr, i32, i32, i32, [4 x i8] }>
%class.ast2ast_trailmap.36 = type { %class.ref_vector, %class.ref_vector.37, %class.obj_map.42 }
%class.ref_vector.37 = type { %class.ref_vector_core.38 }
%class.ref_vector_core.38 = type { %class.ref_manager_wrapper.39, %class.ptr_vector.40 }
%class.ref_manager_wrapper.39 = type { ptr }
%class.ptr_vector.40 = type { %class.vector.41 }
%class.vector.41 = type { ptr }
%class.obj_map.42 = type { %class.core_hashtable.43 }
%class.core_hashtable.43 = type <{ ptr, i32, i32, i32, [4 x i8] }>
%class.obj_pair_map = type { %class.core_hashtable.47 }
%class.core_hashtable.47 = type <{ ptr, i32, i32, i32, [4 x i8] }>
%class.ptr_vector = type { %class.vector }
%class.vector = type { ptr }
%"struct.smt::theory_array_full::var_data_full" = type { %class.ptr_vector, %class.ptr_vector, %class.ptr_vector, %class.ptr_vector, %class.ptr_vector }

; Function Attrs: mustprogress nounwind uwtable
define linkonce_odr hidden noundef i32 @_ZNK6vectorIPN3smt5enodeELb0EjE4sizeEv(ptr noundef nonnull align 8 dereferenceable(8) %this) #4 comdat align 2 {
entry:
  %retval = alloca i32, align 4
  %this.addr = alloca ptr, align 8
  store ptr %this, ptr %this.addr, align 8
  %this1 = load ptr, ptr %this.addr, align 8
  %m_data = getelementptr inbounds %class.vector, ptr %this1, i32 0, i32 0
  %0 = load ptr, ptr %m_data, align 8
  %cmp = icmp eq ptr %0, null
  br i1 %cmp, label %if.then, label %if.end

if.then:                                          ; preds = %entry
  store i32 0, ptr %retval, align 4
  br label %return

if.end:                                           ; preds = %entry
  %m_data2 = getelementptr inbounds %class.vector, ptr %this1, i32 0, i32 0
  %1 = load ptr, ptr %m_data2, align 8
  %arrayidx = getelementptr inbounds i32, ptr %1, i64 -1
  %2 = load i32, ptr %arrayidx, align 4
  store i32 %2, ptr %retval, align 4
  br label %return

return:                                           ; preds = %if.end, %if.then
  %3 = load i32, ptr %retval, align 4
  ret i32 %3
}

; Function Attrs: mustprogress nounwind uwtable
define linkonce_odr hidden noundef ptr @_ZN6vectorIPN3smt5enodeELb0EjE3endEv(ptr noundef nonnull align 8 dereferenceable(8) %this) #4 comdat align 2 {
entry:
  %this.addr = alloca ptr, align 8
  store ptr %this, ptr %this.addr, align 8
  %this1 = load ptr, ptr %this.addr, align 8
  %m_data = getelementptr inbounds %class.vector, ptr %this1, i32 0, i32 0
  %0 = load ptr, ptr %m_data, align 8
  %call = call noundef i32 @_ZNK6vectorIPN3smt5enodeELb0EjE4sizeEv(ptr noundef nonnull align 8 dereferenceable(8) %this1)
  %idx.ext = zext i32 %call to i64
  %add.ptr = getelementptr inbounds ptr, ptr %0, i64 %idx.ext
  ret ptr %add.ptr
}

; Function Attrs: mustprogress nounwind uwtable
define linkonce_odr hidden noundef ptr @_ZN6vectorIPN3smt5enodeELb0EjE5beginEv(ptr noundef nonnull align 8 dereferenceable(8) %this) #4 comdat align 2 {
entry:
  %this.addr = alloca ptr, align 8
  store ptr %this, ptr %this.addr, align 8
  %this1 = load ptr, ptr %this.addr, align 8
  %m_data = getelementptr inbounds %class.vector, ptr %this1, i32 0, i32 0
  %0 = load ptr, ptr %m_data, align 8
  ret ptr %0
}

; Function Attrs: mustprogress nounwind uwtable
define linkonce_odr hidden noundef nonnull align 8 dereferenceable(8) ptr @_ZN6vectorIPN3smt17theory_array_full13var_data_fullELb0EjEixEj(ptr noundef nonnull align 8 dereferenceable(8) %this, i32 noundef %idx) #4 comdat align 2 {
entry:
  %this.addr = alloca ptr, align 8
  %idx.addr = alloca i32, align 4
  store ptr %this, ptr %this.addr, align 8
  store i32 %idx, ptr %idx.addr, align 4
  %this1 = load ptr, ptr %this.addr, align 8
  %m_data = getelementptr inbounds %class.vector.25, ptr %this1, i32 0, i32 0
  %0 = load ptr, ptr %m_data, align 8
  %1 = load i32, ptr %idx.addr, align 4
  %idxprom = zext i32 %1 to i64
  %arrayidx = getelementptr inbounds ptr, ptr %0, i64 %idxprom
  ret ptr %arrayidx
}

; Function Attrs: mustprogress uwtable
define hidden void @_ZN3smt17theory_array_full8merge_ehEiiii(ptr noundef nonnull align 8 dereferenceable(608) %this, i32 noundef %v1, i32 noundef %v2, i32 noundef %u, i32 noundef %w) unnamed_addr #5 align 2 {
entry:
  %this.addr = alloca ptr, align 8
  %v1.addr = alloca i32, align 4
  %v2.addr = alloca i32, align 4
  %u.addr = alloca i32, align 4
  %w.addr = alloca i32, align 4
  %d2 = alloca ptr, align 8
  %__range1 = alloca ptr, align 8
  %__begin1 = alloca ptr, align 8
  %__end1 = alloca ptr, align 8
  %n = alloca ptr, align 8
  %__range14 = alloca ptr, align 8
  %__begin15 = alloca ptr, align 8
  %__end17 = alloca ptr, align 8
  %n12 = alloca ptr, align 8
  %__range116 = alloca ptr, align 8
  %__begin117 = alloca ptr, align 8
  %__end119 = alloca ptr, align 8
  %n24 = alloca ptr, align 8
  %__range128 = alloca ptr, align 8
  %__begin129 = alloca ptr, align 8
  %__end131 = alloca ptr, align 8
  %n36 = alloca ptr, align 8
  %__range140 = alloca ptr, align 8
  %__begin141 = alloca ptr, align 8
  %__end143 = alloca ptr, align 8
  %n48 = alloca ptr, align 8
  store ptr %this, ptr %this.addr, align 8
  store i32 %v1, ptr %v1.addr, align 4
  store i32 %v2, ptr %v2.addr, align 4
  store i32 %u, ptr %u.addr, align 4
  store i32 %w, ptr %w.addr, align 4
  %this1 = load ptr, ptr %this.addr, align 8
  %0 = load i32, ptr %v1.addr, align 4
  %1 = load i32, ptr %v2.addr, align 4
  %2 = load i32, ptr %u.addr, align 4
  %3 = load i32, ptr %w.addr, align 4
  call void @_ZN3smt12theory_array8merge_ehEiiii(ptr noundef nonnull align 8 dereferenceable(444) %this1, i32 noundef %0, i32 noundef %1, i32 noundef %2, i32 noundef %3)
  %m_var_data_full = getelementptr inbounds %"class.smt::theory_array_full", ptr %this1, i32 0, i32 1
  %4 = load i32, ptr %v2.addr, align 4
  %call = call noundef nonnull align 8 dereferenceable(8) ptr @_ZN6vectorIPN3smt17theory_array_full13var_data_fullELb0EjEixEj(ptr noundef nonnull align 8 dereferenceable(8) %m_var_data_full, i32 noundef %4)
  %5 = load ptr, ptr %call, align 8
  store ptr %5, ptr %d2, align 8
  %6 = load ptr, ptr %d2, align 8
  %m_maps = getelementptr inbounds %"struct.smt::theory_array_full::var_data_full", ptr %6, i32 0, i32 0
  store ptr %m_maps, ptr %__range1, align 8
  %7 = load ptr, ptr %__range1, align 8
  %call2 = call noundef ptr @_ZN6vectorIPN3smt5enodeELb0EjE5beginEv(ptr noundef nonnull align 8 dereferenceable(8) %7)
  store ptr %call2, ptr %__begin1, align 8
  %8 = load ptr, ptr %__range1, align 8
  %call3 = call noundef ptr @_ZN6vectorIPN3smt5enodeELb0EjE3endEv(ptr noundef nonnull align 8 dereferenceable(8) %8)
  store ptr %call3, ptr %__end1, align 8
  br label %for.cond

for.cond:                                         ; preds = %for.inc, %entry
  %9 = load ptr, ptr %__begin1, align 8
  %10 = load ptr, ptr %__end1, align 8
  %cmp = icmp ne ptr %9, %10
  br i1 %cmp, label %for.body, label %for.end

for.body:                                         ; preds = %for.cond
  %11 = load ptr, ptr %__begin1, align 8
  %12 = load ptr, ptr %11, align 8
  store ptr %12, ptr %n, align 8
  %13 = load i32, ptr %v1.addr, align 4
  %14 = load ptr, ptr %n, align 8
  call void @_ZN3smt17theory_array_full7add_mapEiPNS_5enodeE(ptr noundef nonnull align 8 dereferenceable(608) %this1, i32 noundef %13, ptr noundef %14)
  br label %for.inc

for.inc:                                          ; preds = %for.body
  %15 = load ptr, ptr %__begin1, align 8
  %incdec.ptr = getelementptr inbounds ptr, ptr %15, i32 1
  store ptr %incdec.ptr, ptr %__begin1, align 8
  br label %for.cond

for.end:                                          ; preds = %for.cond
  %16 = load ptr, ptr %d2, align 8
  %m_parent_maps = getelementptr inbounds %"struct.smt::theory_array_full::var_data_full", ptr %16, i32 0, i32 4
  store ptr %m_parent_maps, ptr %__range14, align 8
  %17 = load ptr, ptr %__range14, align 8
  %call6 = call noundef ptr @_ZN6vectorIPN3smt5enodeELb0EjE5beginEv(ptr noundef nonnull align 8 dereferenceable(8) %17)
  store ptr %call6, ptr %__begin15, align 8
  %18 = load ptr, ptr %__range14, align 8
  %call8 = call noundef ptr @_ZN6vectorIPN3smt5enodeELb0EjE3endEv(ptr noundef nonnull align 8 dereferenceable(8) %18)
  store ptr %call8, ptr %__end17, align 8
  br label %for.cond9

for.cond9:                                        ; preds = %for.inc13, %for.end
  %19 = load ptr, ptr %__begin15, align 8
  %20 = load ptr, ptr %__end17, align 8
  %cmp10 = icmp ne ptr %19, %20
  br i1 %cmp10, label %for.body11, label %for.end15

for.body11:                                       ; preds = %for.cond9
  %21 = load ptr, ptr %__begin15, align 8
  %22 = load ptr, ptr %21, align 8
  store ptr %22, ptr %n12, align 8
  %23 = load i32, ptr %v1.addr, align 4
  %24 = load ptr, ptr %n12, align 8
  call void @_ZN3smt17theory_array_full14add_parent_mapEiPNS_5enodeE(ptr noundef nonnull align 8 dereferenceable(608) %this1, i32 noundef %23, ptr noundef %24)
  br label %for.inc13

for.inc13:                                        ; preds = %for.body11
  %25 = load ptr, ptr %__begin15, align 8
  %incdec.ptr14 = getelementptr inbounds ptr, ptr %25, i32 1
  store ptr %incdec.ptr14, ptr %__begin15, align 8
  br label %for.cond9

for.end15:                                        ; preds = %for.cond9
  %26 = load ptr, ptr %d2, align 8
  %m_consts = getelementptr inbounds %"struct.smt::theory_array_full::var_data_full", ptr %26, i32 0, i32 1
  store ptr %m_consts, ptr %__range116, align 8
  %27 = load ptr, ptr %__range116, align 8
  %call18 = call noundef ptr @_ZN6vectorIPN3smt5enodeELb0EjE5beginEv(ptr noundef nonnull align 8 dereferenceable(8) %27)
  store ptr %call18, ptr %__begin117, align 8
  %28 = load ptr, ptr %__range116, align 8
  %call20 = call noundef ptr @_ZN6vectorIPN3smt5enodeELb0EjE3endEv(ptr noundef nonnull align 8 dereferenceable(8) %28)
  store ptr %call20, ptr %__end119, align 8
  br label %for.cond21

for.cond21:                                       ; preds = %for.inc25, %for.end15
  %29 = load ptr, ptr %__begin117, align 8
  %30 = load ptr, ptr %__end119, align 8
  %cmp22 = icmp ne ptr %29, %30
  br i1 %cmp22, label %for.body23, label %for.end27

for.body23:                                       ; preds = %for.cond21
  %31 = load ptr, ptr %__begin117, align 8
  %32 = load ptr, ptr %31, align 8
  store ptr %32, ptr %n24, align 8
  %33 = load i32, ptr %v1.addr, align 4
  %34 = load ptr, ptr %n24, align 8
  call void @_ZN3smt17theory_array_full9add_constEiPNS_5enodeE(ptr noundef nonnull align 8 dereferenceable(608) %this1, i32 noundef %33, ptr noundef %34)
  br label %for.inc25

for.inc25:                                        ; preds = %for.body23
  %35 = load ptr, ptr %__begin117, align 8
  %incdec.ptr26 = getelementptr inbounds ptr, ptr %35, i32 1
  store ptr %incdec.ptr26, ptr %__begin117, align 8
  br label %for.cond21

for.end27:                                        ; preds = %for.cond21
  %36 = load ptr, ptr %d2, align 8
  %m_as_arrays = getelementptr inbounds %"struct.smt::theory_array_full::var_data_full", ptr %36, i32 0, i32 2
  store ptr %m_as_arrays, ptr %__range128, align 8
  %37 = load ptr, ptr %__range128, align 8
  %call30 = call noundef ptr @_ZN6vectorIPN3smt5enodeELb0EjE5beginEv(ptr noundef nonnull align 8 dereferenceable(8) %37)
  store ptr %call30, ptr %__begin129, align 8
  %38 = load ptr, ptr %__range128, align 8
  %call32 = call noundef ptr @_ZN6vectorIPN3smt5enodeELb0EjE3endEv(ptr noundef nonnull align 8 dereferenceable(8) %38)
  store ptr %call32, ptr %__end131, align 8
  br label %for.cond33

for.cond33:                                       ; preds = %for.inc37, %for.end27
  %39 = load ptr, ptr %__begin129, align 8
  %40 = load ptr, ptr %__end131, align 8
  %cmp34 = icmp ne ptr %39, %40
  br i1 %cmp34, label %for.body35, label %for.end39

for.body35:                                       ; preds = %for.cond33
  %41 = load ptr, ptr %__begin129, align 8
  %42 = load ptr, ptr %41, align 8
  store ptr %42, ptr %n36, align 8
  %43 = load i32, ptr %v1.addr, align 4
  %44 = load ptr, ptr %n36, align 8
  call void @_ZN3smt17theory_array_full12add_as_arrayEiPNS_5enodeE(ptr noundef nonnull align 8 dereferenceable(608) %this1, i32 noundef %43, ptr noundef %44)
  br label %for.inc37

for.inc37:                                        ; preds = %for.body35
  %45 = load ptr, ptr %__begin129, align 8
  %incdec.ptr38 = getelementptr inbounds ptr, ptr %45, i32 1
  store ptr %incdec.ptr38, ptr %__begin129, align 8
  br label %for.cond33

for.end39:                                        ; preds = %for.cond33
  %46 = load ptr, ptr %d2, align 8
  %m_lambdas = getelementptr inbounds %"struct.smt::theory_array_full::var_data_full", ptr %46, i32 0, i32 3
  store ptr %m_lambdas, ptr %__range140, align 8
  %47 = load ptr, ptr %__range140, align 8
  %call42 = call noundef ptr @_ZN6vectorIPN3smt5enodeELb0EjE5beginEv(ptr noundef nonnull align 8 dereferenceable(8) %47)
  store ptr %call42, ptr %__begin141, align 8
  %48 = load ptr, ptr %__range140, align 8
  %call44 = call noundef ptr @_ZN6vectorIPN3smt5enodeELb0EjE3endEv(ptr noundef nonnull align 8 dereferenceable(8) %48)
  store ptr %call44, ptr %__end143, align 8
  br label %for.cond45

for.cond45:                                       ; preds = %for.inc49, %for.end39
  %49 = load ptr, ptr %__begin141, align 8
  %50 = load ptr, ptr %__end143, align 8
  %cmp46 = icmp ne ptr %49, %50
  br i1 %cmp46, label %for.body47, label %for.end51

for.body47:                                       ; preds = %for.cond45
  %51 = load ptr, ptr %__begin141, align 8
  %52 = load ptr, ptr %51, align 8
  store ptr %52, ptr %n48, align 8
  %53 = load i32, ptr %v1.addr, align 4
  %54 = load ptr, ptr %n48, align 8
  call void @_ZN3smt17theory_array_full10add_lambdaEiPNS_5enodeE(ptr noundef nonnull align 8 dereferenceable(608) %this1, i32 noundef %53, ptr noundef %54)
  br label %for.inc49

for.inc49:                                        ; preds = %for.body47
  %55 = load ptr, ptr %__begin141, align 8
  %incdec.ptr50 = getelementptr inbounds ptr, ptr %55, i32 1
  store ptr %incdec.ptr50, ptr %__begin141, align 8
  br label %for.cond45

for.end51:                                        ; preds = %for.cond45
  ret void
}