; Function Attrs: mustprogress uwtable
define hidden void @_ZN3smt17theory_array_full8merge_ehEiiii(ptr noundef nonnull align 8 dereferenceable(608) %this, i32 noundef %v1, i32 noundef %v2, i32 noundef %u, i32 noundef %w) unnamed_addr #3 align 2 {
entry:
  tail call void @_ZN3smt12theory_array8merge_ehEiiii(ptr noundef nonnull align 8 dereferenceable(444) %this, i32 noundef %v1, i32 noundef %v2, i32 noundef %u, i32 noundef %w)
  %m_var_data_full = getelementptr inbounds i8, ptr %this, i64 448
  %0 = load ptr, ptr %m_var_data_full, align 8
  %idxprom.i = zext i32 %v2 to i64
  %arrayidx.i = getelementptr inbounds ptr, ptr %0, i64 %idxprom.i
  %1 = load ptr, ptr %arrayidx.i, align 8
  %2 = load ptr, ptr %1, align 8
  %cmp.i.i = icmp eq ptr %2, null
  br i1 %cmp.i.i, label %for.end, label %_ZN6vectorIPN3smt5enodeELb0EjE3endEv.exit

_ZN6vectorIPN3smt5enodeELb0EjE3endEv.exit:        ; preds = %entry
  %arrayidx.i.i = getelementptr inbounds i8, ptr %2, i64 -4
  %3 = load i32, ptr %arrayidx.i.i, align 4
  %4 = zext i32 %3 to i64
  %add.ptr.i = getelementptr inbounds ptr, ptr %2, i64 %4
  %cmp.not50 = icmp eq i32 %3, 0
  br i1 %cmp.not50, label %for.end, label %for.body

for.body:                                         ; preds = %_ZN6vectorIPN3smt5enodeELb0EjE3endEv.exit, %for.body
  %__begin1.051 = phi ptr [ %incdec.ptr, %for.body ], [ %2, %_ZN6vectorIPN3smt5enodeELb0EjE3endEv.exit ]
  %5 = load ptr, ptr %__begin1.051, align 8
  tail call void @_ZN3smt17theory_array_full7add_mapEiPNS_5enodeE(ptr noundef nonnull align 8 dereferenceable(608) %this, i32 noundef %v1, ptr noundef %5)
  %incdec.ptr = getelementptr inbounds i8, ptr %__begin1.051, i64 8
  %cmp.not = icmp eq ptr %incdec.ptr, %add.ptr.i
  br i1 %cmp.not, label %for.end, label %for.body

for.end:                                          ; preds = %for.body, %entry, %_ZN6vectorIPN3smt5enodeELb0EjE3endEv.exit
  %m_parent_maps = getelementptr inbounds i8, ptr %1, i64 32
  %6 = load ptr, ptr %m_parent_maps, align 8
  %cmp.i.i26 = icmp eq ptr %6, null
  br i1 %cmp.i.i26, label %for.end15, label %_ZN6vectorIPN3smt5enodeELb0EjE3endEv.exit31

_ZN6vectorIPN3smt5enodeELb0EjE3endEv.exit31:      ; preds = %for.end
  %arrayidx.i.i28 = getelementptr inbounds i8, ptr %6, i64 -4
  %7 = load i32, ptr %arrayidx.i.i28, align 4
  %8 = zext i32 %7 to i64
  %add.ptr.i30 = getelementptr inbounds ptr, ptr %6, i64 %8
  %cmp10.not52 = icmp eq i32 %7, 0
  br i1 %cmp10.not52, label %for.end15, label %for.body11

for.body11:                                       ; preds = %_ZN6vectorIPN3smt5enodeELb0EjE3endEv.exit31, %for.body11
  %__begin15.053 = phi ptr [ %incdec.ptr14, %for.body11 ], [ %6, %_ZN6vectorIPN3smt5enodeELb0EjE3endEv.exit31 ]
  %9 = load ptr, ptr %__begin15.053, align 8
  tail call void @_ZN3smt17theory_array_full14add_parent_mapEiPNS_5enodeE(ptr noundef nonnull align 8 dereferenceable(608) %this, i32 noundef %v1, ptr noundef %9)
  %incdec.ptr14 = getelementptr inbounds i8, ptr %__begin15.053, i64 8
  %cmp10.not = icmp eq ptr %incdec.ptr14, %add.ptr.i30
  br i1 %cmp10.not, label %for.end15, label %for.body11

for.end15:                                        ; preds = %for.body11, %for.end, %_ZN6vectorIPN3smt5enodeELb0EjE3endEv.exit31
  %m_consts = getelementptr inbounds i8, ptr %1, i64 8
  %10 = load ptr, ptr %m_consts, align 8
  %cmp.i.i32 = icmp eq ptr %10, null
  br i1 %cmp.i.i32, label %for.end27, label %_ZN6vectorIPN3smt5enodeELb0EjE3endEv.exit37

_ZN6vectorIPN3smt5enodeELb0EjE3endEv.exit37:      ; preds = %for.end15
  %arrayidx.i.i34 = getelementptr inbounds i8, ptr %10, i64 -4
  %11 = load i32, ptr %arrayidx.i.i34, align 4
  %12 = zext i32 %11 to i64
  %add.ptr.i36 = getelementptr inbounds ptr, ptr %10, i64 %12
  %cmp22.not54 = icmp eq i32 %11, 0
  br i1 %cmp22.not54, label %for.end27, label %for.body23

for.body23:                                       ; preds = %_ZN6vectorIPN3smt5enodeELb0EjE3endEv.exit37, %for.body23
  %__begin117.055 = phi ptr [ %incdec.ptr26, %for.body23 ], [ %10, %_ZN6vectorIPN3smt5enodeELb0EjE3endEv.exit37 ]
  %13 = load ptr, ptr %__begin117.055, align 8
  tail call void @_ZN3smt17theory_array_full9add_constEiPNS_5enodeE(ptr noundef nonnull align 8 dereferenceable(608) %this, i32 noundef %v1, ptr noundef %13)
  %incdec.ptr26 = getelementptr inbounds i8, ptr %__begin117.055, i64 8
  %cmp22.not = icmp eq ptr %incdec.ptr26, %add.ptr.i36
  br i1 %cmp22.not, label %for.end27, label %for.body23

for.end27:                                        ; preds = %for.body23, %for.end15, %_ZN6vectorIPN3smt5enodeELb0EjE3endEv.exit37
  %m_as_arrays = getelementptr inbounds i8, ptr %1, i64 16
  %14 = load ptr, ptr %m_as_arrays, align 8
  %cmp.i.i38 = icmp eq ptr %14, null
  br i1 %cmp.i.i38, label %for.end39, label %_ZN6vectorIPN3smt5enodeELb0EjE3endEv.exit43

_ZN6vectorIPN3smt5enodeELb0EjE3endEv.exit43:      ; preds = %for.end27
  %arrayidx.i.i40 = getelementptr inbounds i8, ptr %14, i64 -4
  %15 = load i32, ptr %arrayidx.i.i40, align 4
  %16 = zext i32 %15 to i64
  %add.ptr.i42 = getelementptr inbounds ptr, ptr %14, i64 %16
  %cmp34.not56 = icmp eq i32 %15, 0
  br i1 %cmp34.not56, label %for.end39, label %for.body35

for.body35:                                       ; preds = %_ZN6vectorIPN3smt5enodeELb0EjE3endEv.exit43, %for.body35
  %__begin129.057 = phi ptr [ %incdec.ptr38, %for.body35 ], [ %14, %_ZN6vectorIPN3smt5enodeELb0EjE3endEv.exit43 ]
  %17 = load ptr, ptr %__begin129.057, align 8
  tail call void @_ZN3smt17theory_array_full12add_as_arrayEiPNS_5enodeE(ptr noundef nonnull align 8 dereferenceable(608) %this, i32 noundef %v1, ptr noundef %17)
  %incdec.ptr38 = getelementptr inbounds i8, ptr %__begin129.057, i64 8
  %cmp34.not = icmp eq ptr %incdec.ptr38, %add.ptr.i42
  br i1 %cmp34.not, label %for.end39, label %for.body35

for.end39:                                        ; preds = %for.body35, %for.end27, %_ZN6vectorIPN3smt5enodeELb0EjE3endEv.exit43
  %m_lambdas = getelementptr inbounds i8, ptr %1, i64 24
  %18 = load ptr, ptr %m_lambdas, align 8
  %cmp.i.i44 = icmp eq ptr %18, null
  br i1 %cmp.i.i44, label %for.end51, label %_ZN6vectorIPN3smt5enodeELb0EjE3endEv.exit49

_ZN6vectorIPN3smt5enodeELb0EjE3endEv.exit49:      ; preds = %for.end39
  %arrayidx.i.i46 = getelementptr inbounds i8, ptr %18, i64 -4
  %19 = load i32, ptr %arrayidx.i.i46, align 4
  %20 = zext i32 %19 to i64
  %add.ptr.i48 = getelementptr inbounds ptr, ptr %18, i64 %20
  %cmp46.not58 = icmp eq i32 %19, 0
  br i1 %cmp46.not58, label %for.end51, label %for.body47

for.body47:                                       ; preds = %_ZN6vectorIPN3smt5enodeELb0EjE3endEv.exit49, %for.body47
  %__begin141.059 = phi ptr [ %incdec.ptr50, %for.body47 ], [ %18, %_ZN6vectorIPN3smt5enodeELb0EjE3endEv.exit49 ]
  %21 = load ptr, ptr %__begin141.059, align 8
  tail call void @_ZN3smt17theory_array_full10add_lambdaEiPNS_5enodeE(ptr noundef nonnull align 8 dereferenceable(608) %this, i32 noundef %v1, ptr noundef %21)
  %incdec.ptr50 = getelementptr inbounds i8, ptr %__begin141.059, i64 8
  %cmp46.not = icmp eq ptr %incdec.ptr50, %add.ptr.i48
  br i1 %cmp46.not, label %for.end51, label %for.body47

for.end51:                                        ; preds = %for.body47, %for.end39, %_ZN6vectorIPN3smt5enodeELb0EjE3endEv.exit49
  ret void
}